; Function Attrs: nounwind uwtable
define void @ossl_rlayer_fatal(ptr noundef writeonly captures(none) initializes((4104, 4108)) %0, i32 noundef %1, i32 noundef %2, ptr noundef %3, ...) local_unnamed_addr #0 {
  %5 = alloca [1 x %struct.__va_list_tag], align 16
  call void @llvm.lifetime.start.p0(i64 24, ptr nonnull %5) #13
  call void @llvm.va_start.p0(ptr nonnull %5)
  call void @ERR_vset_error(i32 noundef 20, i32 noundef %2, ptr noundef %3, ptr noundef nonnull %5) #13
  call void @llvm.va_end.p0(ptr nonnull %5)
  %6 = getelementptr inbounds nuw i8, ptr %0, i64 4104
  store i32 %1, ptr %6, align 8, !tbaa !11
  call void @llvm.lifetime.end.p0(i64 24, ptr nonnull %5) #13
  ret void
}